target datalayout = "e-m:e-p270:32:32-p271:32:32-p272:64:64-i64:64-i128:128-f80:128-n8:16:32:64-S128"
target triple = "x86_64-unknown-linux-gnu"

; Function Attrs: mustprogress nounwind uwtable
define void @_ZN8proxygen11HTTPSession19notifyPendingEgressEv(ptr noundef nonnull align 8 dereferenceable(2504) %this) unnamed_addr #5 align 2 personality ptr @__gxx_personality_v0 {
entry:
  %this.addr = alloca ptr, align 8
  store ptr %this, ptr %this.addr, align 8
  %this1 = load ptr, ptr %this.addr, align 8
  invoke void @_ZN8proxygen11HTTPSession13scheduleWriteEv(ptr noundef nonnull align 8 dereferenceable(2504) %this1)
          to label %invoke.cont unwind label %terminate.lpad

invoke.cont:                                      ; preds = %entry
  ret void

terminate.lpad:                                   ; preds = %entry
  %0 = landingpad { ptr, i32 }
          catch ptr null
  %1 = extractvalue { ptr, i32 } %0, 0
  call void @__clang_call_terminate(ptr %1) #30
  unreachable
}

; Function Attrs: nounwind uwtable
define void @_ZThn1584_N8proxygen11HTTPSession19notifyPendingEgressEv(ptr noundef %this) unnamed_addr #11 align 2 {
entry:
  %this.addr = alloca ptr, align 8
  store ptr %this, ptr %this.addr, align 8
  %this1 = load ptr, ptr %this.addr, align 8
  %0 = getelementptr inbounds i8, ptr %this1, i64 -1584
  tail call void @_ZN8proxygen11HTTPSession19notifyPendingEgressEv(ptr noundef nonnull align 8 dereferenceable(2504) %0) #3
  ret void
}