; Function Attrs: nounwind uwtable
define void @_ZThn1584_N8proxygen11HTTPSession19notifyPendingEgressEv(ptr noundef %this) unnamed_addr #10 align 2 personality ptr @__gxx_personality_v0 {
entry:
  %0 = getelementptr inbounds i8, ptr %this, i64 -1584
  invoke void @_ZN8proxygen11HTTPSession13scheduleWriteEv(ptr noundef nonnull align 8 dereferenceable(2504) %0)
          to label %_ZN8proxygen11HTTPSession19notifyPendingEgressEv.exit unwind label %terminate.lpad.i

terminate.lpad.i:                                 ; preds = %entry
  %1 = landingpad { ptr, i32 }
          catch ptr null
  %2 = extractvalue { ptr, i32 } %1, 0
  tail call void @__clang_call_terminate(ptr %2) #40
  unreachable

_ZN8proxygen11HTTPSession19notifyPendingEgressEv.exit: ; preds = %entry
  ret void
}